target datalayout = "e-m:e-p270:32:32-p271:32:32-p272:64:64-i64:64-i128:128-f80:128-n8:16:32:64-S128"
target triple = "x86_64-pc-linux-gnu"

%struct.AVFilterContext = type { ptr, ptr, ptr, ptr, ptr, i32, ptr, ptr, i32, ptr, ptr, i32, i32, ptr, ptr, ptr, ptr, i32, ptr, i32, i32 }
%struct.TMidEqualizerContext = type { ptr, i32, i32, float, [4 x i32], [4 x i32], i32, i32, i32, i32, i32, i32, i32, i32, [127 x float], [4 x [256 x ptr]], [4 x ptr], ptr, ptr, ptr }
%struct.AVFilterLink = type { ptr, ptr, ptr, ptr, i32, i32, i32, i32, %struct.AVRational, i32, i32, i32, %struct.AVChannelLayout, %struct.AVRational, ptr, i32, %struct.AVFilterFormatsConfig, %struct.AVFilterFormatsConfig }
%struct.AVChannelLayout = type { i32, i32, %union.anon.1, ptr }
%union.anon.1 = type { i64 }
%struct.AVRational = type { i32, i32 }
%struct.AVFilterFormatsConfig = type { ptr, ptr, ptr, ptr, ptr }
%struct.AVPixFmtDescriptor = type { ptr, i8, i8, i8, i64, [4 x %struct.AVComponentDescriptor], ptr }
%struct.AVComponentDescriptor = type { i32, i32, i32, i32, i32 }

; Function Attrs: nounwind uwtable
define internal i32 @config_input(ptr noundef %0) #1 {
  %2 = alloca i32, align 4
  %3 = alloca ptr, align 8
  %4 = alloca ptr, align 8
  %5 = alloca ptr, align 8
  %6 = alloca ptr, align 8
  %7 = alloca float, align 4
  %8 = alloca i32, align 4
  %9 = alloca i32, align 4
  %10 = alloca i32, align 4
  %11 = alloca i32, align 4
  %12 = alloca i32, align 4
  %13 = alloca i32, align 4
  store ptr %0, ptr %3, align 8, !tbaa !32
  call void @llvm.lifetime.start.p0(i64 8, ptr %4) #8
  %14 = load ptr, ptr %3, align 8, !tbaa !32
  %15 = getelementptr inbounds nuw %struct.AVFilterLink, ptr %14, i32 0, i32 2
  %16 = load ptr, ptr %15, align 8, !tbaa !36
  store ptr %16, ptr %4, align 8, !tbaa !4
  call void @llvm.lifetime.start.p0(i64 8, ptr %5) #8
  %17 = load ptr, ptr %4, align 8, !tbaa !4
  %18 = getelementptr inbounds nuw %struct.AVFilterContext, ptr %17, i32 0, i32 9
  %19 = load ptr, ptr %18, align 8, !tbaa !9
  store ptr %19, ptr %5, align 8, !tbaa !22
  call void @llvm.lifetime.start.p0(i64 8, ptr %6) #8
  %20 = load ptr, ptr %3, align 8, !tbaa !32
  %21 = getelementptr inbounds nuw %struct.AVFilterLink, ptr %20, i32 0, i32 5
  %22 = load i32, ptr %21, align 4, !tbaa !69
  %23 = call ptr @av_pix_fmt_desc_get(i32 noundef %22)
  store ptr %23, ptr %6, align 8, !tbaa !70
  call void @llvm.lifetime.start.p0(i64 4, ptr %7) #8
  %24 = load ptr, ptr %5, align 8, !tbaa !22
  %25 = getelementptr inbounds nuw %struct.TMidEqualizerContext, ptr %24, i32 0, i32 2
  %26 = load i32, ptr %25, align 4, !tbaa !46
  %27 = sitofp i32 %26 to float
  %28 = load ptr, ptr %5, align 8, !tbaa !22
  %29 = getelementptr inbounds nuw %struct.TMidEqualizerContext, ptr %28, i32 0, i32 3
  %30 = load float, ptr %29, align 8, !tbaa !72
  %31 = fmul nsz float %27, %30
  store float %31, ptr %7, align 4, !tbaa !73
  call void @llvm.lifetime.start.p0(i64 4, ptr %8) #8
  call void @llvm.lifetime.start.p0(i64 4, ptr %9) #8
  %32 = load ptr, ptr %6, align 8, !tbaa !70
  %33 = getelementptr inbounds nuw %struct.AVPixFmtDescriptor, ptr %32, i32 0, i32 5
  %34 = getelementptr inbounds [4 x %struct.AVComponentDescriptor], ptr %33, i64 0, i64 0
  %35 = getelementptr inbounds nuw %struct.AVComponentDescriptor, ptr %34, i32 0, i32 4
  %36 = load i32, ptr %35, align 8, !tbaa !74
  %37 = load ptr, ptr %5, align 8, !tbaa !22
  %38 = getelementptr inbounds nuw %struct.TMidEqualizerContext, ptr %37, i32 0, i32 7
  store i32 %36, ptr %38, align 8, !tbaa !66
  %39 = load ptr, ptr %5, align 8, !tbaa !22
  %40 = getelementptr inbounds nuw %struct.TMidEqualizerContext, ptr %39, i32 0, i32 2
  %41 = load i32, ptr %40, align 4, !tbaa !46
  %42 = mul nsw i32 %41, 2
  %43 = add nsw i32 %42, 1
  %44 = load ptr, ptr %5, align 8, !tbaa !22
  %45 = getelementptr inbounds nuw %struct.TMidEqualizerContext, ptr %44, i32 0, i32 6
  store i32 %43, ptr %45, align 4, !tbaa !24
  %46 = load ptr, ptr %3, align 8, !tbaa !32
  %47 = getelementptr inbounds nuw %struct.AVFilterLink, ptr %46, i32 0, i32 5
  %48 = load i32, ptr %47, align 4, !tbaa !69
  %49 = call i32 @av_pix_fmt_count_planes(i32 noundef %48)
  %50 = load ptr, ptr %5, align 8, !tbaa !22
  %51 = getelementptr inbounds nuw %struct.TMidEqualizerContext, ptr %50, i32 0, i32 12
  store i32 %49, ptr %51, align 4, !tbaa !49
  %52 = load ptr, ptr %6, align 8, !tbaa !70
  %53 = getelementptr inbounds nuw %struct.AVPixFmtDescriptor, ptr %52, i32 0, i32 2
  %54 = load i8, ptr %53, align 1, !tbaa !76
  %55 = zext i8 %54 to i32
  store i32 %55, ptr %9, align 4, !tbaa !28
  %56 = load ptr, ptr %6, align 8, !tbaa !70
  %57 = getelementptr inbounds nuw %struct.AVPixFmtDescriptor, ptr %56, i32 0, i32 3
  %58 = load i8, ptr %57, align 2, !tbaa !79
  %59 = zext i8 %58 to i32
  store i32 %59, ptr %8, align 4, !tbaa !28
  %60 = load ptr, ptr %3, align 8, !tbaa !32
  %61 = getelementptr inbounds nuw %struct.AVFilterLink, ptr %60, i32 0, i32 7
  %62 = load i32, ptr %61, align 4, !tbaa !64
  %63 = load ptr, ptr %5, align 8, !tbaa !22
  %64 = getelementptr inbounds nuw %struct.TMidEqualizerContext, ptr %63, i32 0, i32 5
  %65 = getelementptr inbounds [4 x i32], ptr %64, i64 0, i64 3
  store i32 %62, ptr %65, align 4, !tbaa !28
  %66 = load ptr, ptr %5, align 8, !tbaa !22
  %67 = getelementptr inbounds nuw %struct.TMidEqualizerContext, ptr %66, i32 0, i32 5
  %68 = getelementptr inbounds [4 x i32], ptr %67, i64 0, i64 0
  store i32 %62, ptr %68, align 4, !tbaa !28
  %69 = load ptr, ptr %3, align 8, !tbaa !32
  %70 = getelementptr inbounds nuw %struct.AVFilterLink, ptr %69, i32 0, i32 6
  %71 = load i32, ptr %70, align 8, !tbaa !63
  %72 = load ptr, ptr %5, align 8, !tbaa !22
  %73 = getelementptr inbounds nuw %struct.TMidEqualizerContext, ptr %72, i32 0, i32 4
  %74 = getelementptr inbounds [4 x i32], ptr %73, i64 0, i64 3
  store i32 %71, ptr %74, align 4, !tbaa !28
  %75 = load ptr, ptr %5, align 8, !tbaa !22
  %76 = getelementptr inbounds nuw %struct.TMidEqualizerContext, ptr %75, i32 0, i32 4
  %77 = getelementptr inbounds [4 x i32], ptr %76, i64 0, i64 0
  store i32 %71, ptr %77, align 4, !tbaa !28
  %78 = load i32, ptr %8, align 4, !tbaa !28
  %79 = call i1 @llvm.is.constant.i32(i32 %78)
  br i1 %79, label %88, label %80

80:                                               ; preds = %1
  %81 = load ptr, ptr %3, align 8, !tbaa !32
  %82 = getelementptr inbounds nuw %struct.AVFilterLink, ptr %81, i32 0, i32 7
  %83 = load i32, ptr %82, align 4, !tbaa !64
  %84 = sub nsw i32 0, %83
  %85 = load i32, ptr %8, align 4, !tbaa !28
  %86 = ashr i32 %84, %85
  %87 = sub nsw i32 0, %86
  br label %98

88:                                               ; preds = %1
  %89 = load ptr, ptr %3, align 8, !tbaa !32
  %90 = getelementptr inbounds nuw %struct.AVFilterLink, ptr %89, i32 0, i32 7
  %91 = load i32, ptr %90, align 4, !tbaa !64
  %92 = load i32, ptr %8, align 4, !tbaa !28
  %93 = shl i32 1, %92
  %94 = add nsw i32 %91, %93
  %95 = sub nsw i32 %94, 1
  %96 = load i32, ptr %8, align 4, !tbaa !28
  %97 = ashr i32 %95, %96
  br label %98

98:                                               ; preds = %88, %80
  %99 = phi i32 [ %87, %80 ], [ %97, %88 ]
  %100 = load ptr, ptr %5, align 8, !tbaa !22
  %101 = getelementptr inbounds nuw %struct.TMidEqualizerContext, ptr %100, i32 0, i32 5
  %102 = getelementptr inbounds [4 x i32], ptr %101, i64 0, i64 2
  store i32 %99, ptr %102, align 4, !tbaa !28
  %103 = load ptr, ptr %5, align 8, !tbaa !22
  %104 = getelementptr inbounds nuw %struct.TMidEqualizerContext, ptr %103, i32 0, i32 5
  %105 = getelementptr inbounds [4 x i32], ptr %104, i64 0, i64 1
  store i32 %99, ptr %105, align 4, !tbaa !28
  %106 = load i32, ptr %9, align 4, !tbaa !28
  %107 = call i1 @llvm.is.constant.i32(i32 %106)
  br i1 %107, label %116, label %108

108:                                              ; preds = %98
  %109 = load ptr, ptr %3, align 8, !tbaa !32
  %110 = getelementptr inbounds nuw %struct.AVFilterLink, ptr %109, i32 0, i32 6
  %111 = load i32, ptr %110, align 8, !tbaa !63
  %112 = sub nsw i32 0, %111
  %113 = load i32, ptr %9, align 4, !tbaa !28
  %114 = ashr i32 %112, %113
  %115 = sub nsw i32 0, %114
  br label %126

116:                                              ; preds = %98
  %117 = load ptr, ptr %3, align 8, !tbaa !32
  %118 = getelementptr inbounds nuw %struct.AVFilterLink, ptr %117, i32 0, i32 6
  %119 = load i32, ptr %118, align 8, !tbaa !63
  %120 = load i32, ptr %9, align 4, !tbaa !28
  %121 = shl i32 1, %120
  %122 = add nsw i32 %119, %121
  %123 = sub nsw i32 %122, 1
  %124 = load i32, ptr %9, align 4, !tbaa !28
  %125 = ashr i32 %123, %124
  br label %126

126:                                              ; preds = %116, %108
  %127 = phi i32 [ %115, %108 ], [ %125, %116 ]
  %128 = load ptr, ptr %5, align 8, !tbaa !22
  %129 = getelementptr inbounds nuw %struct.TMidEqualizerContext, ptr %128, i32 0, i32 4
  %130 = getelementptr inbounds [4 x i32], ptr %129, i64 0, i64 2
  store i32 %127, ptr %130, align 4, !tbaa !28
  %131 = load ptr, ptr %5, align 8, !tbaa !22
  %132 = getelementptr inbounds nuw %struct.TMidEqualizerContext, ptr %131, i32 0, i32 4
  %133 = getelementptr inbounds [4 x i32], ptr %132, i64 0, i64 1
  store i32 %127, ptr %133, align 4, !tbaa !28
  %134 = load ptr, ptr %5, align 8, !tbaa !22
  %135 = getelementptr inbounds nuw %struct.TMidEqualizerContext, ptr %134, i32 0, i32 7
  %136 = load i32, ptr %135, align 8, !tbaa !66
  %137 = shl i32 1, %136
  %138 = load ptr, ptr %5, align 8, !tbaa !22
  %139 = getelementptr inbounds nuw %struct.TMidEqualizerContext, ptr %138, i32 0, i32 13
  store i32 %137, ptr %139, align 8, !tbaa !54
  call void @llvm.lifetime.start.p0(i64 4, ptr %10) #8
  store i32 0, ptr %10, align 4, !tbaa !28
  br label %140

140:                                              ; preds = %168, %126
  %141 = load i32, ptr %10, align 4, !tbaa !28
  %142 = load ptr, ptr %5, align 8, !tbaa !22
  %143 = getelementptr inbounds nuw %struct.TMidEqualizerContext, ptr %142, i32 0, i32 2
  %144 = load i32, ptr %143, align 4, !tbaa !46
  %145 = icmp slt i32 %141, %144
  br i1 %145, label %147, label %146

146:                                              ; preds = %140
  call void @llvm.lifetime.end.p0(i64 4, ptr %10) #8
  br label %171

147:                                              ; preds = %140
  %148 = load i32, ptr %10, align 4, !tbaa !28
  %149 = add nsw i32 %148, 1
  %150 = sitofp i32 %149 to double
  %151 = fmul nsz double -5.000000e-01, %150
  %152 = load i32, ptr %10, align 4, !tbaa !28
  %153 = add nsw i32 %152, 1
  %154 = sitofp i32 %153 to double
  %155 = fmul nsz double %151, %154
  %156 = load float, ptr %7, align 4, !tbaa !73
  %157 = load float, ptr %7, align 4, !tbaa !73
  %158 = fmul nsz float %156, %157
  %159 = fpext nsz float %158 to double
  %160 = fdiv nsz double %155, %159
  %161 = fptrunc nsz double %160 to float
  %162 = call nsz float @llvm.exp.f32(float %161)
  %163 = load ptr, ptr %5, align 8, !tbaa !22
  %164 = getelementptr inbounds nuw %struct.TMidEqualizerContext, ptr %163, i32 0, i32 14
  %165 = load i32, ptr %10, align 4, !tbaa !28
  %166 = sext i32 %165 to i64
  %167 = getelementptr inbounds [127 x float], ptr %164, i64 0, i64 %166
  store float %162, ptr %167, align 4, !tbaa !73
  br label %168

168:                                              ; preds = %147
  %169 = load i32, ptr %10, align 4, !tbaa !28
  %170 = add nsw i32 %169, 1
  store i32 %170, ptr %10, align 4, !tbaa !28
  br label %140, !llvm.loop !80

171:                                              ; preds = %146
  call void @llvm.lifetime.start.p0(i64 4, ptr %11) #8
  store i32 0, ptr %11, align 4, !tbaa !28
  br label %172

172:                                              ; preds = %238, %171
  %173 = load i32, ptr %11, align 4, !tbaa !28
  %174 = load ptr, ptr %5, align 8, !tbaa !22
  %175 = getelementptr inbounds nuw %struct.TMidEqualizerContext, ptr %174, i32 0, i32 12
  %176 = load i32, ptr %175, align 4, !tbaa !49
  %177 = icmp slt i32 %173, %176
  br i1 %177, label %179, label %178

178:                                              ; preds = %172
  store i32 5, ptr %12, align 4
  br label %241

179:                                              ; preds = %172
  call void @llvm.lifetime.start.p0(i64 4, ptr %13) #8
  store i32 0, ptr %13, align 4, !tbaa !28
  br label %180

180:                                              ; preds = %213, %179
  %181 = load i32, ptr %13, align 4, !tbaa !28
  %182 = load ptr, ptr %5, align 8, !tbaa !22
  %183 = getelementptr inbounds nuw %struct.TMidEqualizerContext, ptr %182, i32 0, i32 6
  %184 = load i32, ptr %183, align 4, !tbaa !24
  %185 = icmp slt i32 %181, %184
  br i1 %185, label %187, label %186

186:                                              ; preds = %180
  store i32 8, ptr %12, align 4
  br label %216

187:                                              ; preds = %180
  %188 = load ptr, ptr %5, align 8, !tbaa !22
  %189 = getelementptr inbounds nuw %struct.TMidEqualizerContext, ptr %188, i32 0, i32 13
  %190 = load i32, ptr %189, align 8, !tbaa !54
  %191 = sext i32 %190 to i64
  %192 = call noalias ptr @av_calloc(i64 noundef %191, i64 noundef 4)
  %193 = load ptr, ptr %5, align 8, !tbaa !22
  %194 = getelementptr inbounds nuw %struct.TMidEqualizerContext, ptr %193, i32 0, i32 15
  %195 = load i32, ptr %11, align 4, !tbaa !28
  %196 = sext i32 %195 to i64
  %197 = getelementptr inbounds [4 x [256 x ptr]], ptr %194, i64 0, i64 %196
  %198 = load i32, ptr %13, align 4, !tbaa !28
  %199 = sext i32 %198 to i64
  %200 = getelementptr inbounds [256 x ptr], ptr %197, i64 0, i64 %199
  store ptr %192, ptr %200, align 8, !tbaa !52
  %201 = load ptr, ptr %5, align 8, !tbaa !22
  %202 = getelementptr inbounds nuw %struct.TMidEqualizerContext, ptr %201, i32 0, i32 15
  %203 = load i32, ptr %11, align 4, !tbaa !28
  %204 = sext i32 %203 to i64
  %205 = getelementptr inbounds [4 x [256 x ptr]], ptr %202, i64 0, i64 %204
  %206 = load i32, ptr %13, align 4, !tbaa !28
  %207 = sext i32 %206 to i64
  %208 = getelementptr inbounds [256 x ptr], ptr %205, i64 0, i64 %207
  %209 = load ptr, ptr %208, align 8, !tbaa !52
  %210 = icmp ne ptr %209, null
  br i1 %210, label %212, label %211

211:                                              ; preds = %187
  store i32 -12, ptr %2, align 4
  store i32 1, ptr %12, align 4
  br label %216

212:                                              ; preds = %187
  br label %213

213:                                              ; preds = %212
  %214 = load i32, ptr %13, align 4, !tbaa !28
  %215 = add nsw i32 %214, 1
  store i32 %215, ptr %13, align 4, !tbaa !28
  br label %180, !llvm.loop !81

216:                                              ; preds = %211, %186
  call void @llvm.lifetime.end.p0(i64 4, ptr %13) #8
  %217 = load i32, ptr %12, align 4
  switch i32 %217, label %241 [
    i32 8, label %218
  ]

218:                                              ; preds = %216
  %219 = load ptr, ptr %5, align 8, !tbaa !22
  %220 = getelementptr inbounds nuw %struct.TMidEqualizerContext, ptr %219, i32 0, i32 13
  %221 = load i32, ptr %220, align 8, !tbaa !54
  %222 = sext i32 %221 to i64
  %223 = call noalias ptr @av_calloc(i64 noundef %222, i64 noundef 4)
  %224 = load ptr, ptr %5, align 8, !tbaa !22
  %225 = getelementptr inbounds nuw %struct.TMidEqualizerContext, ptr %224, i32 0, i32 16
  %226 = load i32, ptr %11, align 4, !tbaa !28
  %227 = sext i32 %226 to i64
  %228 = getelementptr inbounds [4 x ptr], ptr %225, i64 0, i64 %227
  store ptr %223, ptr %228, align 8, !tbaa !52
  %229 = load ptr, ptr %5, align 8, !tbaa !22
  %230 = getelementptr inbounds nuw %struct.TMidEqualizerContext, ptr %229, i32 0, i32 16
  %231 = load i32, ptr %11, align 4, !tbaa !28
  %232 = sext i32 %231 to i64
  %233 = getelementptr inbounds [4 x ptr], ptr %230, i64 0, i64 %232
  %234 = load ptr, ptr %233, align 8, !tbaa !52
  %235 = icmp ne ptr %234, null
  br i1 %235, label %237, label %236

236:                                              ; preds = %218
  store i32 -12, ptr %2, align 4
  store i32 1, ptr %12, align 4
  br label %241

237:                                              ; preds = %218
  br label %238

238:                                              ; preds = %237
  %239 = load i32, ptr %11, align 4, !tbaa !28
  %240 = add nsw i32 %239, 1
  store i32 %240, ptr %11, align 4, !tbaa !28
  br label %172, !llvm.loop !82

241:                                              ; preds = %236, %216, %178
  call void @llvm.lifetime.end.p0(i64 4, ptr %11) #8
  %242 = load i32, ptr %12, align 4
  switch i32 %242, label %277 [
    i32 5, label %243
  ]

243:                                              ; preds = %241
  %244 = load ptr, ptr %5, align 8, !tbaa !22
  %245 = getelementptr inbounds nuw %struct.TMidEqualizerContext, ptr %244, i32 0, i32 17
  %246 = load ptr, ptr %245, align 8, !tbaa !29
  %247 = icmp ne ptr %246, null
  br i1 %247, label %256, label %248

248:                                              ; preds = %243
  %249 = load ptr, ptr %5, align 8, !tbaa !22
  %250 = getelementptr inbounds nuw %struct.TMidEqualizerContext, ptr %249, i32 0, i32 6
  %251 = load i32, ptr %250, align 4, !tbaa !24
  %252 = sext i32 %251 to i64
  %253 = call noalias ptr @av_calloc(i64 noundef %252, i64 noundef 8)
  %254 = load ptr, ptr %5, align 8, !tbaa !22
  %255 = getelementptr inbounds nuw %struct.TMidEqualizerContext, ptr %254, i32 0, i32 17
  store ptr %253, ptr %255, align 8, !tbaa !29
  br label %256

256:                                              ; preds = %248, %243
  %257 = load ptr, ptr %5, align 8, !tbaa !22
  %258 = getelementptr inbounds nuw %struct.TMidEqualizerContext, ptr %257, i32 0, i32 17
  %259 = load ptr, ptr %258, align 8, !tbaa !29
  %260 = icmp ne ptr %259, null
  br i1 %260, label %262, label %261

261:                                              ; preds = %256
  store i32 -12, ptr %2, align 4
  store i32 1, ptr %12, align 4
  br label %277

262:                                              ; preds = %256
  %263 = load ptr, ptr %5, align 8, !tbaa !22
  %264 = getelementptr inbounds nuw %struct.TMidEqualizerContext, ptr %263, i32 0, i32 7
  %265 = load i32, ptr %264, align 8, !tbaa !66
  %266 = icmp sle i32 %265, 8
  %267 = select i1 %266, ptr @compute_histogram8, ptr @compute_histogram16
  %268 = load ptr, ptr %5, align 8, !tbaa !22
  %269 = getelementptr inbounds nuw %struct.TMidEqualizerContext, ptr %268, i32 0, i32 18
  store ptr %267, ptr %269, align 8, !tbaa !50
  %270 = load ptr, ptr %5, align 8, !tbaa !22
  %271 = getelementptr inbounds nuw %struct.TMidEqualizerContext, ptr %270, i32 0, i32 7
  %272 = load i32, ptr %271, align 8, !tbaa !66
  %273 = icmp sle i32 %272, 8
  %274 = select i1 %273, ptr @apply_contrast_change8, ptr @apply_contrast_change16
  %275 = load ptr, ptr %5, align 8, !tbaa !22
  %276 = getelementptr inbounds nuw %struct.TMidEqualizerContext, ptr %275, i32 0, i32 19
  store ptr %274, ptr %276, align 8, !tbaa !67
  store i32 0, ptr %2, align 4
  store i32 1, ptr %12, align 4
  br label %277

277:                                              ; preds = %262, %261, %241
  call void @llvm.lifetime.end.p0(i64 4, ptr %9) #8
  call void @llvm.lifetime.end.p0(i64 4, ptr %8) #8
  call void @llvm.lifetime.end.p0(i64 4, ptr %7) #8
  call void @llvm.lifetime.end.p0(i64 8, ptr %6) #8
  call void @llvm.lifetime.end.p0(i64 8, ptr %5) #8
  call void @llvm.lifetime.end.p0(i64 8, ptr %4) #8
  %278 = load i32, ptr %2, align 4
  ret i32 %278
}