; Function Attrs: nounwind uwtable
define internal range(i32 -12, 1) i32 @config_input(ptr noundef readonly captures(none) %0) #1 {
  %2 = getelementptr inbounds nuw i8, ptr %0, i64 16
  %3 = load ptr, ptr %2, align 8, !tbaa !27
  %4 = getelementptr inbounds nuw i8, ptr %3, i64 72
  %5 = load ptr, ptr %4, align 8, !tbaa !4
  %6 = getelementptr inbounds nuw i8, ptr %0, i64 36
  %7 = load i32, ptr %6, align 4, !tbaa !72
  %8 = tail call ptr @av_pix_fmt_desc_get(i32 noundef %7) #8
  %9 = getelementptr inbounds nuw i8, ptr %5, i64 12
  %10 = load i32, ptr %9, align 4, !tbaa !42
  %11 = getelementptr inbounds nuw i8, ptr %5, i64 16
  %12 = load float, ptr %11, align 8, !tbaa !73
  %13 = getelementptr inbounds nuw i8, ptr %8, i64 40
  %14 = load i32, ptr %13, align 8, !tbaa !74
  %15 = getelementptr inbounds nuw i8, ptr %5, i64 56
  store i32 %14, ptr %15, align 8, !tbaa !63
  %16 = shl nsw i32 %10, 1
  %17 = or disjoint i32 %16, 1
  %18 = getelementptr inbounds nuw i8, ptr %5, i64 52
  store i32 %17, ptr %18, align 4, !tbaa !20
  %19 = load i32, ptr %6, align 4, !tbaa !72
  %20 = tail call i32 @av_pix_fmt_count_planes(i32 noundef %19) #8
  %21 = getelementptr inbounds nuw i8, ptr %5, i64 76
  store i32 %20, ptr %21, align 4, !tbaa !45
  %22 = getelementptr inbounds nuw i8, ptr %8, i64 9
  %23 = load i8, ptr %22, align 1, !tbaa !76
  %24 = zext nneg i8 %23 to i32
  %25 = getelementptr inbounds nuw i8, ptr %8, i64 10
  %26 = load i8, ptr %25, align 2, !tbaa !79
  %27 = getelementptr inbounds nuw i8, ptr %0, i64 44
  %28 = load i32, ptr %27, align 4, !tbaa !61
  %29 = getelementptr inbounds nuw i8, ptr %5, i64 36
  %30 = getelementptr inbounds nuw i8, ptr %5, i64 48
  store i32 %28, ptr %30, align 4, !tbaa !48
  store i32 %28, ptr %29, align 4, !tbaa !48
  %31 = getelementptr inbounds nuw i8, ptr %0, i64 40
  %32 = load i32, ptr %31, align 8, !tbaa !60
  %33 = getelementptr inbounds nuw i8, ptr %5, i64 20
  %34 = getelementptr inbounds nuw i8, ptr %5, i64 32
  store i32 %32, ptr %34, align 4, !tbaa !48
  store i32 %32, ptr %33, align 4, !tbaa !48
  %35 = load i32, ptr %27, align 4, !tbaa !61
  %36 = sub nsw i32 0, %35
  %37 = zext nneg i8 %26 to i32
  %38 = ashr i32 %36, %37
  %39 = sub nsw i32 0, %38
  %40 = getelementptr inbounds nuw i8, ptr %5, i64 44
  store i32 %39, ptr %40, align 4, !tbaa !48
  %41 = getelementptr inbounds nuw i8, ptr %5, i64 40
  store i32 %39, ptr %41, align 4, !tbaa !48
  %42 = load i32, ptr %31, align 8, !tbaa !60
  %43 = sub nsw i32 0, %42
  %44 = ashr i32 %43, %24
  %45 = sub nsw i32 0, %44
  %46 = getelementptr inbounds nuw i8, ptr %5, i64 28
  store i32 %45, ptr %46, align 4, !tbaa !48
  %47 = getelementptr inbounds nuw i8, ptr %5, i64 24
  store i32 %45, ptr %47, align 4, !tbaa !48
  %48 = load i32, ptr %15, align 8, !tbaa !63
  %49 = shl nuw i32 1, %48
  %50 = getelementptr inbounds nuw i8, ptr %5, i64 80
  store i32 %49, ptr %50, align 8, !tbaa !51
  %51 = load i32, ptr %9, align 4, !tbaa !42
  %52 = icmp sgt i32 %51, 0
  br i1 %52, label %.lr.ph, label %.preheader88

.lr.ph:                                           ; preds = %1
  %53 = sitofp i32 %10 to float
  %54 = fmul nsz float %12, %53
  %55 = fmul nsz float %54, %54
  %56 = fpext nsz float %55 to double
  %57 = getelementptr inbounds nuw i8, ptr %5, i64 84
  %wide.trip.count = zext nneg i32 %51 to i64
  br label %60

.preheader88:                                     ; preds = %60, %1
  %.not8294 = icmp sgt i32 %20, 0
  br i1 %.not8294, label %.preheader.lr.ph, label %.critedge86

.preheader.lr.ph:                                 ; preds = %.preheader88
  %58 = getelementptr inbounds nuw i8, ptr %5, i64 592
  %59 = getelementptr inbounds nuw i8, ptr %5, i64 8784
  br label %.preheader

60:                                               ; preds = %.lr.ph, %60
  %indvars.iv = phi i64 [ 0, %.lr.ph ], [ %indvars.iv.next, %60 ]
  %indvars.iv.next = add nuw nsw i64 %indvars.iv, 1
  %61 = trunc nuw nsw i64 %indvars.iv.next to i32
  %62 = uitofp nneg i32 %61 to double
  %63 = fmul nsz double %62, -5.000000e-01
  %64 = fmul nsz double %63, %62
  %65 = fdiv nsz double %64, %56
  %66 = fptrunc nsz double %65 to float
  %67 = tail call nsz float @llvm.exp.f32(float %66)
  %68 = getelementptr inbounds nuw [127 x float], ptr %57, i64 0, i64 %indvars.iv
  store float %67, ptr %68, align 4, !tbaa !64
  %exitcond.not = icmp eq i64 %indvars.iv.next, %wide.trip.count
  br i1 %exitcond.not, label %.preheader88, label %60, !llvm.loop !80

69:                                               ; preds = %.critedge
  %indvars.iv.next103 = add nuw nsw i64 %indvars.iv102, 1
  %70 = load i32, ptr %21, align 4, !tbaa !45
  %71 = sext i32 %70 to i64
  %.not82 = icmp slt i64 %indvars.iv.next103, %71
  br i1 %.not82, label %.preheader, label %.critedge86, !llvm.loop !81

.preheader:                                       ; preds = %.preheader.lr.ph, %69
  %indvars.iv102 = phi i64 [ 0, %.preheader.lr.ph ], [ %indvars.iv.next103, %69 ]
  %72 = load i32, ptr %18, align 4, !tbaa !20
  %.not8091 = icmp sgt i32 %72, 0
  br i1 %.not8091, label %.lr.ph93, label %.critedge

73:                                               ; preds = %.lr.ph93
  %indvars.iv.next100 = add nuw nsw i64 %indvars.iv99, 1
  %74 = load i32, ptr %18, align 4, !tbaa !20
  %75 = sext i32 %74 to i64
  %.not80 = icmp slt i64 %indvars.iv.next100, %75
  br i1 %.not80, label %.lr.ph93, label %.critedge, !llvm.loop !82

.lr.ph93:                                         ; preds = %.preheader, %73
  %indvars.iv99 = phi i64 [ %indvars.iv.next100, %73 ], [ 0, %.preheader ]
  %76 = load i32, ptr %50, align 8, !tbaa !51
  %77 = sext i32 %76 to i64
  %78 = tail call noalias ptr @av_calloc(i64 noundef %77, i64 noundef 4) #8
  %79 = getelementptr inbounds nuw [4 x [256 x ptr]], ptr %58, i64 0, i64 %indvars.iv102, i64 %indvars.iv99
  store ptr %78, ptr %79, align 8, !tbaa !49
  %.not = icmp eq ptr %78, null
  br i1 %.not, label %.loopexit, label %73

.critedge:                                        ; preds = %73, %.preheader
  %80 = load i32, ptr %50, align 8, !tbaa !51
  %81 = sext i32 %80 to i64
  %82 = tail call noalias ptr @av_calloc(i64 noundef %81, i64 noundef 4) #8
  %83 = getelementptr inbounds nuw [4 x ptr], ptr %59, i64 0, i64 %indvars.iv102
  store ptr %82, ptr %83, align 8, !tbaa !49
  %.not81 = icmp eq ptr %82, null
  br i1 %.not81, label %.loopexit, label %69

.critedge86:                                      ; preds = %69, %.preheader88
  %84 = getelementptr inbounds nuw i8, ptr %5, i64 8816
  %85 = load ptr, ptr %84, align 8, !tbaa !24
  %.not83 = icmp eq ptr %85, null
  br i1 %.not83, label %86, label %.thread

86:                                               ; preds = %.critedge86
  %87 = load i32, ptr %18, align 4, !tbaa !20
  %88 = sext i32 %87 to i64
  %89 = tail call noalias ptr @av_calloc(i64 noundef %88, i64 noundef 8) #8
  store ptr %89, ptr %84, align 8, !tbaa !24
  %.not84 = icmp eq ptr %89, null
  br i1 %.not84, label %.loopexit, label %.thread

.thread:                                          ; preds = %.critedge86, %86
  %90 = load i32, ptr %15, align 8, !tbaa !63
  %91 = icmp slt i32 %90, 9
  %92 = select i1 %91, ptr @compute_histogram8, ptr @compute_histogram16
  %93 = getelementptr inbounds nuw i8, ptr %5, i64 8824
  store ptr %92, ptr %93, align 8, !tbaa !46
  %94 = select i1 %91, ptr @apply_contrast_change8, ptr @apply_contrast_change16
  %95 = getelementptr inbounds nuw i8, ptr %5, i64 8832
  store ptr %94, ptr %95, align 8, !tbaa !70
  br label %.loopexit

.loopexit:                                        ; preds = %.critedge, %.lr.ph93, %86, %.thread
  %.3 = phi i32 [ 0, %.thread ], [ -12, %86 ], [ -12, %.lr.ph93 ], [ -12, %.critedge ]
  ret i32 %.3
}